target datalayout = "e-m:e-p270:32:32-p271:32:32-p272:64:64-i64:64-i128:128-f80:128-n8:16:32:64-S128"
target triple = "x86_64-pc-linux-gnu"

%struct.mbedtls_error_pair_t = type { i16, i16 }
%struct.psa_key_derivation_s = type { i32, i8, i64, %union.psa_driver_key_derivation_context_t }
%union.psa_driver_key_derivation_context_t = type { %struct.psa_hkdf_key_derivation_t }
%struct.psa_hkdf_key_derivation_t = type { ptr, i64, i8, i8, i8, [64 x i8], [64 x i8], %struct.psa_mac_operation_s }
%struct.psa_mac_operation_s = type { i32, i8, i8, %union.psa_driver_mac_context_t }
%union.psa_driver_mac_context_t = type { %struct.mbedtls_psa_mac_operation_t }
%struct.mbedtls_psa_mac_operation_t = type { i32, %union.anon }
%union.anon = type { %struct.mbedtls_psa_hmac_operation_t }
%struct.mbedtls_psa_hmac_operation_t = type { i32, %struct.psa_hash_operation_s, [144 x i8] }
%struct.psa_hash_operation_s = type { i32, %union.psa_driver_hash_context_t }
%union.psa_driver_hash_context_t = type { %struct.mbedtls_psa_hash_operation_t }
%struct.mbedtls_psa_hash_operation_t = type { i32, %union.anon.0 }
%union.anon.0 = type { %struct.mbedtls_sha512_context }
%struct.mbedtls_sha512_context = type { [2 x i64], [8 x i64], [128 x i8], i32 }

@tls13_label_prefix = internal constant [6 x i8] c"tls13 ", align 1
@psa_to_ssl_errors = external constant [7 x %struct.mbedtls_error_pair_t], align 16

; Function Attrs: nounwind uwtable
define internal i32 @local_err_translation(i32 noundef %0) #0 {
  %2 = alloca i32, align 4
  store i32 %0, ptr %2, align 4, !tbaa !3
  %3 = load i32, ptr %2, align 4, !tbaa !3
  %4 = call i32 @psa_status_to_mbedtls(i32 noundef %3, ptr noundef @psa_to_ssl_errors, i64 noundef 7, ptr noundef @psa_generic_status_to_mbedtls)
  ret i32 %4
}

; Function Attrs: nounwind uwtable
define internal void @ssl_tls13_hkdf_encode_label(i64 noundef %0, ptr noundef %1, i64 noundef %2, ptr noundef %3, i64 noundef %4, ptr noundef %5, ptr noundef %6) #0 {
  %8 = alloca i64, align 8
  %9 = alloca ptr, align 8
  %10 = alloca i64, align 8
  %11 = alloca ptr, align 8
  %12 = alloca i64, align 8
  %13 = alloca ptr, align 8
  %14 = alloca ptr, align 8
  %15 = alloca i64, align 8
  %16 = alloca i64, align 8
  %17 = alloca ptr, align 8
  store i64 %0, ptr %8, align 8, !tbaa !10
  store ptr %1, ptr %9, align 8, !tbaa !7
  store i64 %2, ptr %10, align 8, !tbaa !10
  store ptr %3, ptr %11, align 8, !tbaa !7
  store i64 %4, ptr %12, align 8, !tbaa !10
  store ptr %5, ptr %13, align 8, !tbaa !7
  store ptr %6, ptr %14, align 8, !tbaa !12
  call void @llvm.lifetime.start.p0(i64 8, ptr %15) #8
  %18 = load i64, ptr %10, align 8, !tbaa !10
  %19 = add i64 6, %18
  store i64 %19, ptr %15, align 8, !tbaa !10
  call void @llvm.lifetime.start.p0(i64 8, ptr %16) #8
  %20 = load i64, ptr %15, align 8, !tbaa !10
  %21 = add i64 3, %20
  %22 = add i64 %21, 1
  %23 = load i64, ptr %12, align 8, !tbaa !10
  %24 = add i64 %22, %23
  store i64 %24, ptr %16, align 8, !tbaa !10
  call void @llvm.lifetime.start.p0(i64 8, ptr %17) #8
  %25 = load ptr, ptr %13, align 8, !tbaa !7
  store ptr %25, ptr %17, align 8, !tbaa !7
  %26 = load ptr, ptr %17, align 8, !tbaa !7
  %27 = getelementptr inbounds nuw i8, ptr %26, i32 1
  store ptr %27, ptr %17, align 8, !tbaa !7
  store i8 0, ptr %26, align 1, !tbaa !14
  %28 = load i64, ptr %8, align 8, !tbaa !10
  %29 = and i64 %28, 255
  %30 = trunc i64 %29 to i8
  %31 = load ptr, ptr %17, align 8, !tbaa !7
  %32 = getelementptr inbounds nuw i8, ptr %31, i32 1
  store ptr %32, ptr %17, align 8, !tbaa !7
  store i8 %30, ptr %31, align 1, !tbaa !14
  %33 = load i64, ptr %15, align 8, !tbaa !10
  %34 = and i64 %33, 255
  %35 = trunc i64 %34 to i8
  %36 = load ptr, ptr %17, align 8, !tbaa !7
  %37 = getelementptr inbounds nuw i8, ptr %36, i32 1
  store ptr %37, ptr %17, align 8, !tbaa !7
  store i8 %35, ptr %36, align 1, !tbaa !14
  %38 = load ptr, ptr %17, align 8, !tbaa !7
  call void @llvm.memcpy.p0.p0.i64(ptr align 1 %38, ptr align 1 @tls13_label_prefix, i64 6, i1 false)
  %39 = load ptr, ptr %17, align 8, !tbaa !7
  %40 = getelementptr inbounds nuw i8, ptr %39, i64 6
  store ptr %40, ptr %17, align 8, !tbaa !7
  %41 = load ptr, ptr %17, align 8, !tbaa !7
  %42 = load ptr, ptr %9, align 8, !tbaa !7
  %43 = load i64, ptr %10, align 8, !tbaa !10
  call void @llvm.memcpy.p0.p0.i64(ptr align 1 %41, ptr align 1 %42, i64 %43, i1 false)
  %44 = load i64, ptr %10, align 8, !tbaa !10
  %45 = load ptr, ptr %17, align 8, !tbaa !7
  %46 = getelementptr inbounds nuw i8, ptr %45, i64 %44
  store ptr %46, ptr %17, align 8, !tbaa !7
  %47 = load i64, ptr %12, align 8, !tbaa !10
  %48 = and i64 %47, 255
  %49 = trunc i64 %48 to i8
  %50 = load ptr, ptr %17, align 8, !tbaa !7
  %51 = getelementptr inbounds nuw i8, ptr %50, i32 1
  store ptr %51, ptr %17, align 8, !tbaa !7
  store i8 %49, ptr %50, align 1, !tbaa !14
  %52 = load i64, ptr %12, align 8, !tbaa !10
  %53 = icmp ne i64 %52, 0
  br i1 %53, label %54, label %58

54:                                               ; preds = %7
  %55 = load ptr, ptr %17, align 8, !tbaa !7
  %56 = load ptr, ptr %11, align 8, !tbaa !7
  %57 = load i64, ptr %12, align 8, !tbaa !10
  call void @llvm.memcpy.p0.p0.i64(ptr align 1 %55, ptr align 1 %56, i64 %57, i1 false)
  br label %58

58:                                               ; preds = %54, %7
  %59 = load i64, ptr %16, align 8, !tbaa !10
  %60 = load ptr, ptr %14, align 8, !tbaa !12
  store i64 %59, ptr %60, align 8, !tbaa !10
  call void @llvm.lifetime.end.p0(i64 8, ptr %17) #8
  call void @llvm.lifetime.end.p0(i64 8, ptr %16) #8
  call void @llvm.lifetime.end.p0(i64 8, ptr %15) #8
  ret void
}

; Function Attrs: nounwind uwtable
define hidden i32 @mbedtls_ssl_tls13_hkdf_expand_label(i32 noundef %0, ptr noundef %1, i64 noundef %2, ptr noundef %3, i64 noundef %4, ptr noundef %5, i64 noundef %6, ptr noundef %7, i64 noundef %8) #0 {
  %10 = alloca i32, align 4
  %11 = alloca i32, align 4
  %12 = alloca ptr, align 8
  %13 = alloca i64, align 8
  %14 = alloca ptr, align 8
  %15 = alloca i64, align 8
  %16 = alloca ptr, align 8
  %17 = alloca i64, align 8
  %18 = alloca ptr, align 8
  %19 = alloca i64, align 8
  %20 = alloca [107 x i8], align 16
  %21 = alloca i64, align 8
  %22 = alloca i32, align 4
  %23 = alloca i32, align 4
  %24 = alloca %struct.psa_key_derivation_s, align 8
  %25 = alloca i32, align 4
  store i32 %0, ptr %11, align 4, !tbaa !3
  store ptr %1, ptr %12, align 8, !tbaa !7
  store i64 %2, ptr %13, align 8, !tbaa !10
  store ptr %3, ptr %14, align 8, !tbaa !7
  store i64 %4, ptr %15, align 8, !tbaa !10
  store ptr %5, ptr %16, align 8, !tbaa !7
  store i64 %6, ptr %17, align 8, !tbaa !10
  store ptr %7, ptr %18, align 8, !tbaa !7
  store i64 %8, ptr %19, align 8, !tbaa !10
  call void @llvm.lifetime.start.p0(i64 107, ptr %20) #8
  call void @llvm.lifetime.start.p0(i64 8, ptr %21) #8
  store i64 0, ptr %21, align 8, !tbaa !10
  call void @llvm.lifetime.start.p0(i64 4, ptr %22) #8
  store i32 -151, ptr %22, align 4, !tbaa !3
  call void @llvm.lifetime.start.p0(i64 4, ptr %23) #8
  store i32 -151, ptr %23, align 4, !tbaa !3
  call void @llvm.lifetime.start.p0(i64 568, ptr %24) #8
  call void @llvm.memset.p0.i64(ptr align 8 %24, i8 0, i64 568, i1 false)
  %26 = load i64, ptr %15, align 8, !tbaa !10
  %27 = icmp ugt i64 %26, 33
  br i1 %27, label %28, label %29

28:                                               ; preds = %9
  store i32 -27648, ptr %10, align 4
  store i32 1, ptr %25, align 4
  br label %92

29:                                               ; preds = %9
  %30 = load i64, ptr %17, align 8, !tbaa !10
  %31 = icmp ugt i64 %30, 64
  br i1 %31, label %32, label %33

32:                                               ; preds = %29
  store i32 -27648, ptr %10, align 4
  store i32 1, ptr %25, align 4
  br label %92

33:                                               ; preds = %29
  %34 = load i64, ptr %19, align 8, !tbaa !10
  %35 = icmp ugt i64 %34, 255
  br i1 %35, label %36, label %37

36:                                               ; preds = %33
  store i32 -27648, ptr %10, align 4
  store i32 1, ptr %25, align 4
  br label %92

37:                                               ; preds = %33
  %38 = load i32, ptr %11, align 4, !tbaa !3
  %39 = and i32 %38, 2130706432
  %40 = icmp eq i32 %39, 33554432
  br i1 %40, label %42, label %41

41:                                               ; preds = %37
  store i32 -28928, ptr %10, align 4
  store i32 1, ptr %25, align 4
  br label %92

42:                                               ; preds = %37
  %43 = load i64, ptr %19, align 8, !tbaa !10
  %44 = load ptr, ptr %14, align 8, !tbaa !7
  %45 = load i64, ptr %15, align 8, !tbaa !10
  %46 = load ptr, ptr %16, align 8, !tbaa !7
  %47 = load i64, ptr %17, align 8, !tbaa !10
  %48 = getelementptr inbounds [107 x i8], ptr %20, i64 0, i64 0
  call void @ssl_tls13_hkdf_encode_label(i64 noundef %43, ptr noundef %44, i64 noundef %45, ptr noundef %46, i64 noundef %47, ptr noundef %48, ptr noundef %21)
  %49 = load i32, ptr %11, align 4, !tbaa !3
  %50 = and i32 %49, 255
  %51 = or i32 134219008, %50
  %52 = call i32 @psa_key_derivation_setup(ptr noundef %24, i32 noundef %51)
  store i32 %52, ptr %22, align 4, !tbaa !3
  %53 = load i32, ptr %22, align 4, !tbaa !3
  %54 = icmp ne i32 %53, 0
  br i1 %54, label %55, label %56

55:                                               ; preds = %42
  br label %78

56:                                               ; preds = %42
  %57 = load ptr, ptr %12, align 8, !tbaa !7
  %58 = load i64, ptr %13, align 8, !tbaa !10
  %59 = call i32 @psa_key_derivation_input_bytes(ptr noundef %24, i16 noundef zeroext 257, ptr noundef %57, i64 noundef %58)
  store i32 %59, ptr %22, align 4, !tbaa !3
  %60 = load i32, ptr %22, align 4, !tbaa !3
  %61 = icmp ne i32 %60, 0
  br i1 %61, label %62, label %63

62:                                               ; preds = %56
  br label %78

63:                                               ; preds = %56
  %64 = getelementptr inbounds [107 x i8], ptr %20, i64 0, i64 0
  %65 = load i64, ptr %21, align 8, !tbaa !10
  %66 = call i32 @psa_key_derivation_input_bytes(ptr noundef %24, i16 noundef zeroext 515, ptr noundef %64, i64 noundef %65)
  store i32 %66, ptr %22, align 4, !tbaa !3
  %67 = load i32, ptr %22, align 4, !tbaa !3
  %68 = icmp ne i32 %67, 0
  br i1 %68, label %69, label %70

69:                                               ; preds = %63
  br label %78

70:                                               ; preds = %63
  %71 = load ptr, ptr %18, align 8, !tbaa !7
  %72 = load i64, ptr %19, align 8, !tbaa !10
  %73 = call i32 @psa_key_derivation_output_bytes(ptr noundef %24, ptr noundef %71, i64 noundef %72)
  store i32 %73, ptr %22, align 4, !tbaa !3
  %74 = load i32, ptr %22, align 4, !tbaa !3
  %75 = icmp ne i32 %74, 0
  br i1 %75, label %76, label %77

76:                                               ; preds = %70
  br label %78

77:                                               ; preds = %70
  br label %78

78:                                               ; preds = %77, %76, %69, %62, %55
  %79 = call i32 @psa_key_derivation_abort(ptr noundef %24)
  store i32 %79, ptr %23, align 4, !tbaa !3
  %80 = load i32, ptr %22, align 4, !tbaa !3
  %81 = icmp eq i32 %80, 0
  br i1 %81, label %82, label %84

82:                                               ; preds = %78
  %83 = load i32, ptr %23, align 4, !tbaa !3
  br label %86

84:                                               ; preds = %78
  %85 = load i32, ptr %22, align 4, !tbaa !3
  br label %86

86:                                               ; preds = %84, %82
  %87 = phi i32 [ %83, %82 ], [ %85, %84 ]
  store i32 %87, ptr %22, align 4, !tbaa !3
  %88 = getelementptr inbounds [107 x i8], ptr %20, i64 0, i64 0
  %89 = load i64, ptr %21, align 8, !tbaa !10
  call void @mbedtls_platform_zeroize(ptr noundef %88, i64 noundef %89)
  %90 = load i32, ptr %22, align 4, !tbaa !3
  %91 = call i32 @local_err_translation(i32 noundef %90)
  store i32 %91, ptr %10, align 4
  store i32 1, ptr %25, align 4
  br label %92

92:                                               ; preds = %86, %41, %36, %32, %28
  call void @llvm.lifetime.end.p0(i64 568, ptr %24) #8
  call void @llvm.lifetime.end.p0(i64 4, ptr %23) #8
  call void @llvm.lifetime.end.p0(i64 4, ptr %22) #8
  call void @llvm.lifetime.end.p0(i64 8, ptr %21) #8
  call void @llvm.lifetime.end.p0(i64 107, ptr %20) #8
  %93 = load i32, ptr %10, align 4
  ret i32 %93
}