; Function Attrs: nounwind uwtable
define hidden i32 @mbedtls_ssl_tls13_hkdf_expand_label(i32 noundef %0, ptr noundef %1, i64 noundef %2, ptr noundef readonly captures(none) %3, i64 noundef %4, ptr noundef readonly captures(none) %5, i64 noundef %6, ptr noundef %7, i64 noundef %8) local_unnamed_addr #0 {
  %10 = alloca [107 x i8], align 16
  %11 = alloca %struct.psa_key_derivation_s, align 8
  call void @llvm.lifetime.start.p0(i64 107, ptr nonnull %10) #8
  call void @llvm.lifetime.start.p0(i64 568, ptr nonnull %11) #8
  call void @llvm.memset.p0.i64(ptr noundef nonnull align 8 dereferenceable(568) %11, i8 0, i64 568, i1 false)
  %12 = icmp ugt i64 %4, 33
  %13 = icmp ugt i64 %6, 64
  %or.cond = or i1 %12, %13
  %14 = icmp ugt i64 %8, 255
  %or.cond30 = or i1 %or.cond, %14
  br i1 %or.cond30, label %46, label %15

15:                                               ; preds = %9
  %16 = and i32 %0, 2130706432
  %17 = icmp eq i32 %16, 33554432
  br i1 %17, label %18, label %46

18:                                               ; preds = %15
  %19 = getelementptr inbounds nuw i8, ptr %10, i64 1
  store i8 0, ptr %10, align 16, !tbaa !3
  %20 = trunc nuw i64 %8 to i8
  %21 = getelementptr inbounds nuw i8, ptr %10, i64 2
  store i8 %20, ptr %19, align 1, !tbaa !3
  %22 = trunc nuw nsw i64 %4 to i8
  %23 = add nuw nsw i8 %22, 6
  %24 = getelementptr inbounds nuw i8, ptr %10, i64 3
  store i8 %23, ptr %21, align 2, !tbaa !3
  call void @llvm.memcpy.p0.p0.i64(ptr noundef nonnull align 1 dereferenceable(6) %24, ptr noundef nonnull align 1 dereferenceable(6) @tls13_label_prefix, i64 6, i1 false)
  %25 = getelementptr inbounds nuw i8, ptr %10, i64 9
  call void @llvm.memcpy.p0.p0.i64(ptr nonnull align 1 %25, ptr readonly align 1 %3, i64 range(i64 0, 34) %4, i1 false)
  %26 = getelementptr inbounds nuw i8, ptr %25, i64 %4
  %27 = trunc nuw nsw i64 %6 to i8
  store i8 %27, ptr %26, align 1, !tbaa !3
  %.not.i = icmp eq i64 %6, 0
  br i1 %.not.i, label %ssl_tls13_hkdf_encode_label.exit, label %28

28:                                               ; preds = %18
  %29 = getelementptr inbounds nuw i8, ptr %26, i64 1
  call void @llvm.memcpy.p0.p0.i64(ptr nonnull align 1 %29, ptr readonly align 1 %5, i64 range(i64 0, 65) %6, i1 false)
  br label %ssl_tls13_hkdf_encode_label.exit

ssl_tls13_hkdf_encode_label.exit:                 ; preds = %18, %28
  %30 = add nuw nsw i64 %4, 10
  %31 = add nuw nsw i64 %30, %6
  %32 = and i32 %0, 255
  %33 = or disjoint i32 %32, 134219008
  %34 = call i32 @psa_key_derivation_setup(ptr noundef nonnull %11, i32 noundef %33) #8
  %.not = icmp eq i32 %34, 0
  br i1 %.not, label %35, label %41

35:                                               ; preds = %ssl_tls13_hkdf_encode_label.exit
  %36 = call i32 @psa_key_derivation_input_bytes(ptr noundef nonnull %11, i16 noundef zeroext 257, ptr noundef %1, i64 noundef %2) #8
  %.not28 = icmp eq i32 %36, 0
  br i1 %.not28, label %37, label %41

37:                                               ; preds = %35
  %38 = call i32 @psa_key_derivation_input_bytes(ptr noundef nonnull %11, i16 noundef zeroext 515, ptr noundef nonnull %10, i64 noundef %31) #8
  %.not29 = icmp eq i32 %38, 0
  br i1 %.not29, label %39, label %41

39:                                               ; preds = %37
  %40 = call i32 @psa_key_derivation_output_bytes(ptr noundef nonnull %11, ptr noundef %7, i64 noundef %8) #8
  br label %41

41:                                               ; preds = %39, %37, %35, %ssl_tls13_hkdf_encode_label.exit
  %.0 = phi i32 [ %34, %ssl_tls13_hkdf_encode_label.exit ], [ %36, %35 ], [ %38, %37 ], [ %40, %39 ]
  %42 = call i32 @psa_key_derivation_abort(ptr noundef nonnull %11) #8
  %43 = icmp eq i32 %.0, 0
  %44 = select i1 %43, i32 %42, i32 %.0
  call void @mbedtls_platform_zeroize(ptr noundef nonnull %10, i64 noundef %31) #8
  %45 = call i32 @psa_status_to_mbedtls(i32 noundef %44, ptr noundef nonnull @psa_to_ssl_errors, i64 noundef 7, ptr noundef nonnull @psa_generic_status_to_mbedtls) #8
  br label %46

46:                                               ; preds = %15, %9, %41
  %.021 = phi i32 [ %45, %41 ], [ -27648, %9 ], [ -28928, %15 ]
  call void @llvm.lifetime.end.p0(i64 568, ptr nonnull %11) #8
  call void @llvm.lifetime.end.p0(i64 107, ptr nonnull %10) #8
  ret i32 %.021
}